; Function Attrs: nounwind uwtable
define ptr @l_Array_foldlMUnsafe_fold___at_Lean_Elab_Tactic_GuardMsgs_elabGuardMsgs___spec__1(ptr noundef readonly captures(none) %0, i64 noundef %1, i64 noundef %2, ptr noundef %3) local_unnamed_addr #0 {
  %.not43 = icmp eq i64 %1, %2
  br i1 %.not43, label %._crit_edge, label %.lr.ph

.lr.ph:                                           ; preds = %4
  %5 = getelementptr inbounds nuw i8, ptr %0, i64 24
  br label %6

6:                                                ; preds = %.lr.ph, %51
  %.02045 = phi i64 [ %1, %.lr.ph ], [ %53, %51 ]
  %.02244 = phi ptr [ %3, %.lr.ph ], [ %52, %51 ]
  %7 = getelementptr inbounds nuw [0 x ptr], ptr %5, i64 0, i64 %.02045
  %8 = load ptr, ptr %7, align 8, !tbaa !4
  %9 = ptrtoint ptr %8 to i64
  %10 = and i64 %9, 1
  %.not.i28 = icmp eq i64 %10, 0
  br i1 %.not.i28, label %11, label %lean_array_uget.exit

11:                                               ; preds = %6
  %.val.i.i = load i32, ptr %8, align 4, !tbaa !8
  %12 = icmp sgt i32 %.val.i.i, 0
  br i1 %12, label %13, label %15, !prof !13

13:                                               ; preds = %11
  %14 = add nuw i32 %.val.i.i, 1
  store i32 %14, ptr %8, align 4, !tbaa !8
  br label %lean_array_uget.exit

15:                                               ; preds = %11
  %.not.i.i = icmp eq i32 %.val.i.i, 0
  br i1 %.not.i.i, label %lean_array_uget.exit, label %16

16:                                               ; preds = %15
  tail call void @lean_inc_ref_cold(ptr noundef nonnull %8) #7
  br label %lean_array_uget.exit

lean_array_uget.exit:                             ; preds = %6, %13, %15, %16
  %17 = getelementptr inbounds nuw i8, ptr %8, i64 16
  %18 = load ptr, ptr %17, align 8, !tbaa !4
  %19 = ptrtoint ptr %18 to i64
  %20 = and i64 %19, 1
  %.not40 = icmp eq i64 %20, 0
  br i1 %.not40, label %21, label %lean_inc.exit25

21:                                               ; preds = %lean_array_uget.exit
  %.val.i = load i32, ptr %18, align 4, !tbaa !8
  %22 = icmp sgt i32 %.val.i, 0
  br i1 %22, label %23, label %25, !prof !13

23:                                               ; preds = %21
  %24 = add nuw i32 %.val.i, 1
  store i32 %24, ptr %18, align 4, !tbaa !8
  br label %lean_inc.exit25

25:                                               ; preds = %21
  %.not.i29 = icmp eq i32 %.val.i, 0
  br i1 %.not.i29, label %lean_inc.exit25, label %26

26:                                               ; preds = %25
  tail call void @lean_inc_ref_cold(ptr noundef nonnull %18) #7
  br label %lean_inc.exit25

lean_inc.exit25:                                  ; preds = %26, %25, %23, %lean_array_uget.exit
  br i1 %.not.i28, label %27, label %lean_dec.exit24

27:                                               ; preds = %lean_inc.exit25
  %28 = load i32, ptr %8, align 4, !tbaa !8
  %29 = icmp sgt i32 %28, 1
  br i1 %29, label %30, label %32, !prof !13

30:                                               ; preds = %27
  %31 = add nsw i32 %28, -1
  store i32 %31, ptr %8, align 4, !tbaa !8
  br label %lean_dec.exit24

32:                                               ; preds = %27
  %.not.i = icmp eq i32 %28, 0
  br i1 %.not.i, label %lean_dec.exit24, label %33

33:                                               ; preds = %32
  tail call void @lean_dec_ref_cold(ptr noundef nonnull %8) #7
  br label %lean_dec.exit24

lean_dec.exit24:                                  ; preds = %33, %32, %30, %lean_inc.exit25
  %34 = getelementptr inbounds nuw i8, ptr %18, i64 8
  %35 = load ptr, ptr %34, align 8, !tbaa !4
  %36 = ptrtoint ptr %35 to i64
  %37 = and i64 %36, 1
  %.not42 = icmp eq i64 %37, 0
  br i1 %.not42, label %38, label %lean_inc.exit

38:                                               ; preds = %lean_dec.exit24
  %.val.i30 = load i32, ptr %35, align 4, !tbaa !8
  %39 = icmp sgt i32 %.val.i30, 0
  br i1 %39, label %40, label %42, !prof !13

40:                                               ; preds = %38
  %41 = add nuw i32 %.val.i30, 1
  store i32 %41, ptr %35, align 4, !tbaa !8
  br label %lean_inc.exit

42:                                               ; preds = %38
  %.not.i31 = icmp eq i32 %.val.i30, 0
  br i1 %.not.i31, label %lean_inc.exit, label %43

43:                                               ; preds = %42
  tail call void @lean_inc_ref_cold(ptr noundef nonnull %35) #7
  br label %lean_inc.exit

lean_inc.exit:                                    ; preds = %43, %42, %40, %lean_dec.exit24
  br i1 %.not40, label %44, label %51

44:                                               ; preds = %lean_inc.exit
  %45 = load i32, ptr %18, align 4, !tbaa !8
  %46 = icmp sgt i32 %45, 1
  br i1 %46, label %47, label %49, !prof !13

47:                                               ; preds = %44
  %48 = add nsw i32 %45, -1
  store i32 %48, ptr %18, align 4, !tbaa !8
  br label %51

49:                                               ; preds = %44
  %.not.i26 = icmp eq i32 %45, 0
  br i1 %.not.i26, label %51, label %50

50:                                               ; preds = %49
  tail call void @lean_dec_ref_cold(ptr noundef nonnull %18) #7
  br label %51

51:                                               ; preds = %lean_inc.exit, %47, %49, %50
  %52 = tail call ptr @l_Lean_MessageLog_append(ptr noundef %.02244, ptr noundef %35) #7
  %53 = add i64 %.02045, 1
  %.not = icmp eq i64 %53, %2
  br i1 %.not, label %._crit_edge, label %6

._crit_edge:                                      ; preds = %51, %4
  %.022.lcssa = phi ptr [ %3, %4 ], [ %52, %51 ]
  ret ptr %.022.lcssa
}